target datalayout = "e-m:e-p270:32:32-p271:32:32-p272:64:64-i64:64-i128:128-f80:128-n8:16:32:64-S128"
target triple = "x86_64-pc-linux-gnu"

%struct.mbedtls_md_context_t = type { ptr, ptr, ptr }
%struct.mbedtls_md_info_t = type { i32, i8, i8 }

; Function Attrs: nounwind uwtable
define hidden i32 @mbedtls_md_setup(ptr noundef %0, ptr noundef %1, i32 noundef %2) #0 {
  %4 = alloca i32, align 4
  %5 = alloca ptr, align 8
  %6 = alloca ptr, align 8
  %7 = alloca i32, align 4
  store ptr %0, ptr %5, align 8, !tbaa !7
  store ptr %1, ptr %6, align 8, !tbaa !18
  store i32 %2, ptr %7, align 4, !tbaa !3
  %8 = load ptr, ptr %5, align 8, !tbaa !7
  %9 = icmp eq ptr %8, null
  br i1 %9, label %10, label %11

10:                                               ; preds = %3
  store i32 -20736, ptr %4, align 4
  br label %166

11:                                               ; preds = %3
  %12 = load ptr, ptr %6, align 8, !tbaa !18
  %13 = icmp eq ptr %12, null
  br i1 %13, label %14, label %15

14:                                               ; preds = %11
  store i32 -20736, ptr %4, align 4
  br label %166

15:                                               ; preds = %11
  %16 = load ptr, ptr %6, align 8, !tbaa !18
  %17 = load ptr, ptr %5, align 8, !tbaa !7
  %18 = getelementptr inbounds nuw %struct.mbedtls_md_context_t, ptr %17, i32 0, i32 0
  store ptr %16, ptr %18, align 8, !tbaa !10
  %19 = load ptr, ptr %5, align 8, !tbaa !7
  %20 = getelementptr inbounds nuw %struct.mbedtls_md_context_t, ptr %19, i32 0, i32 1
  store ptr null, ptr %20, align 8, !tbaa !13
  %21 = load ptr, ptr %5, align 8, !tbaa !7
  %22 = getelementptr inbounds nuw %struct.mbedtls_md_context_t, ptr %21, i32 0, i32 2
  store ptr null, ptr %22, align 8, !tbaa !16
  %23 = load ptr, ptr %6, align 8, !tbaa !18
  %24 = getelementptr inbounds nuw %struct.mbedtls_md_info_t, ptr %23, i32 0, i32 0
  %25 = load i32, ptr %24, align 4, !tbaa !14
  switch i32 %25, label %146 [
    i32 3, label %26
    i32 4, label %41
    i32 5, label %56
    i32 8, label %71
    i32 9, label %86
    i32 10, label %101
    i32 11, label %116
    i32 16, label %131
    i32 17, label %131
    i32 18, label %131
    i32 19, label %131
  ]

26:                                               ; preds = %15
  br label %27

27:                                               ; preds = %26
  %28 = call noalias ptr @calloc(i64 noundef 1, i64 noundef 88) #10
  %29 = load ptr, ptr %5, align 8, !tbaa !7
  %30 = getelementptr inbounds nuw %struct.mbedtls_md_context_t, ptr %29, i32 0, i32 1
  store ptr %28, ptr %30, align 8, !tbaa !13
  %31 = load ptr, ptr %5, align 8, !tbaa !7
  %32 = getelementptr inbounds nuw %struct.mbedtls_md_context_t, ptr %31, i32 0, i32 1
  %33 = load ptr, ptr %32, align 8, !tbaa !13
  %34 = icmp eq ptr %33, null
  br i1 %34, label %35, label %36

35:                                               ; preds = %27
  store i32 -20864, ptr %4, align 4
  br label %166

36:                                               ; preds = %27
  %37 = load ptr, ptr %5, align 8, !tbaa !7
  %38 = getelementptr inbounds nuw %struct.mbedtls_md_context_t, ptr %37, i32 0, i32 1
  %39 = load ptr, ptr %38, align 8, !tbaa !13
  call void @mbedtls_md5_init(ptr noundef %39)
  br label %40

40:                                               ; preds = %36
  br label %147

41:                                               ; preds = %15
  br label %42

42:                                               ; preds = %41
  %43 = call noalias ptr @calloc(i64 noundef 1, i64 noundef 92) #10
  %44 = load ptr, ptr %5, align 8, !tbaa !7
  %45 = getelementptr inbounds nuw %struct.mbedtls_md_context_t, ptr %44, i32 0, i32 1
  store ptr %43, ptr %45, align 8, !tbaa !13
  %46 = load ptr, ptr %5, align 8, !tbaa !7
  %47 = getelementptr inbounds nuw %struct.mbedtls_md_context_t, ptr %46, i32 0, i32 1
  %48 = load ptr, ptr %47, align 8, !tbaa !13
  %49 = icmp eq ptr %48, null
  br i1 %49, label %50, label %51

50:                                               ; preds = %42
  store i32 -20864, ptr %4, align 4
  br label %166

51:                                               ; preds = %42
  %52 = load ptr, ptr %5, align 8, !tbaa !7
  %53 = getelementptr inbounds nuw %struct.mbedtls_md_context_t, ptr %52, i32 0, i32 1
  %54 = load ptr, ptr %53, align 8, !tbaa !13
  call void @mbedtls_ripemd160_init(ptr noundef %54)
  br label %55

55:                                               ; preds = %51
  br label %147

56:                                               ; preds = %15
  br label %57

57:                                               ; preds = %56
  %58 = call noalias ptr @calloc(i64 noundef 1, i64 noundef 92) #10
  %59 = load ptr, ptr %5, align 8, !tbaa !7
  %60 = getelementptr inbounds nuw %struct.mbedtls_md_context_t, ptr %59, i32 0, i32 1
  store ptr %58, ptr %60, align 8, !tbaa !13
  %61 = load ptr, ptr %5, align 8, !tbaa !7
  %62 = getelementptr inbounds nuw %struct.mbedtls_md_context_t, ptr %61, i32 0, i32 1
  %63 = load ptr, ptr %62, align 8, !tbaa !13
  %64 = icmp eq ptr %63, null
  br i1 %64, label %65, label %66

65:                                               ; preds = %57
  store i32 -20864, ptr %4, align 4
  br label %166

66:                                               ; preds = %57
  %67 = load ptr, ptr %5, align 8, !tbaa !7
  %68 = getelementptr inbounds nuw %struct.mbedtls_md_context_t, ptr %67, i32 0, i32 1
  %69 = load ptr, ptr %68, align 8, !tbaa !13
  call void @mbedtls_sha1_init(ptr noundef %69)
  br label %70

70:                                               ; preds = %66
  br label %147

71:                                               ; preds = %15
  br label %72

72:                                               ; preds = %71
  %73 = call noalias ptr @calloc(i64 noundef 1, i64 noundef 108) #10
  %74 = load ptr, ptr %5, align 8, !tbaa !7
  %75 = getelementptr inbounds nuw %struct.mbedtls_md_context_t, ptr %74, i32 0, i32 1
  store ptr %73, ptr %75, align 8, !tbaa !13
  %76 = load ptr, ptr %5, align 8, !tbaa !7
  %77 = getelementptr inbounds nuw %struct.mbedtls_md_context_t, ptr %76, i32 0, i32 1
  %78 = load ptr, ptr %77, align 8, !tbaa !13
  %79 = icmp eq ptr %78, null
  br i1 %79, label %80, label %81

80:                                               ; preds = %72
  store i32 -20864, ptr %4, align 4
  br label %166

81:                                               ; preds = %72
  %82 = load ptr, ptr %5, align 8, !tbaa !7
  %83 = getelementptr inbounds nuw %struct.mbedtls_md_context_t, ptr %82, i32 0, i32 1
  %84 = load ptr, ptr %83, align 8, !tbaa !13
  call void @mbedtls_sha256_init(ptr noundef %84)
  br label %85

85:                                               ; preds = %81
  br label %147

86:                                               ; preds = %15
  br label %87

87:                                               ; preds = %86
  %88 = call noalias ptr @calloc(i64 noundef 1, i64 noundef 108) #10
  %89 = load ptr, ptr %5, align 8, !tbaa !7
  %90 = getelementptr inbounds nuw %struct.mbedtls_md_context_t, ptr %89, i32 0, i32 1
  store ptr %88, ptr %90, align 8, !tbaa !13
  %91 = load ptr, ptr %5, align 8, !tbaa !7
  %92 = getelementptr inbounds nuw %struct.mbedtls_md_context_t, ptr %91, i32 0, i32 1
  %93 = load ptr, ptr %92, align 8, !tbaa !13
  %94 = icmp eq ptr %93, null
  br i1 %94, label %95, label %96

95:                                               ; preds = %87
  store i32 -20864, ptr %4, align 4
  br label %166

96:                                               ; preds = %87
  %97 = load ptr, ptr %5, align 8, !tbaa !7
  %98 = getelementptr inbounds nuw %struct.mbedtls_md_context_t, ptr %97, i32 0, i32 1
  %99 = load ptr, ptr %98, align 8, !tbaa !13
  call void @mbedtls_sha256_init(ptr noundef %99)
  br label %100

100:                                              ; preds = %96
  br label %147

101:                                              ; preds = %15
  br label %102

102:                                              ; preds = %101
  %103 = call noalias ptr @calloc(i64 noundef 1, i64 noundef 216) #10
  %104 = load ptr, ptr %5, align 8, !tbaa !7
  %105 = getelementptr inbounds nuw %struct.mbedtls_md_context_t, ptr %104, i32 0, i32 1
  store ptr %103, ptr %105, align 8, !tbaa !13
  %106 = load ptr, ptr %5, align 8, !tbaa !7
  %107 = getelementptr inbounds nuw %struct.mbedtls_md_context_t, ptr %106, i32 0, i32 1
  %108 = load ptr, ptr %107, align 8, !tbaa !13
  %109 = icmp eq ptr %108, null
  br i1 %109, label %110, label %111

110:                                              ; preds = %102
  store i32 -20864, ptr %4, align 4
  br label %166

111:                                              ; preds = %102
  %112 = load ptr, ptr %5, align 8, !tbaa !7
  %113 = getelementptr inbounds nuw %struct.mbedtls_md_context_t, ptr %112, i32 0, i32 1
  %114 = load ptr, ptr %113, align 8, !tbaa !13
  call void @mbedtls_sha512_init(ptr noundef %114)
  br label %115

115:                                              ; preds = %111
  br label %147

116:                                              ; preds = %15
  br label %117

117:                                              ; preds = %116
  %118 = call noalias ptr @calloc(i64 noundef 1, i64 noundef 216) #10
  %119 = load ptr, ptr %5, align 8, !tbaa !7
  %120 = getelementptr inbounds nuw %struct.mbedtls_md_context_t, ptr %119, i32 0, i32 1
  store ptr %118, ptr %120, align 8, !tbaa !13
  %121 = load ptr, ptr %5, align 8, !tbaa !7
  %122 = getelementptr inbounds nuw %struct.mbedtls_md_context_t, ptr %121, i32 0, i32 1
  %123 = load ptr, ptr %122, align 8, !tbaa !13
  %124 = icmp eq ptr %123, null
  br i1 %124, label %125, label %126

125:                                              ; preds = %117
  store i32 -20864, ptr %4, align 4
  br label %166

126:                                              ; preds = %117
  %127 = load ptr, ptr %5, align 8, !tbaa !7
  %128 = getelementptr inbounds nuw %struct.mbedtls_md_context_t, ptr %127, i32 0, i32 1
  %129 = load ptr, ptr %128, align 8, !tbaa !13
  call void @mbedtls_sha512_init(ptr noundef %129)
  br label %130

130:                                              ; preds = %126
  br label %147

131:                                              ; preds = %15, %15, %15, %15
  br label %132

132:                                              ; preds = %131
  %133 = call noalias ptr @calloc(i64 noundef 1, i64 noundef 208) #10
  %134 = load ptr, ptr %5, align 8, !tbaa !7
  %135 = getelementptr inbounds nuw %struct.mbedtls_md_context_t, ptr %134, i32 0, i32 1
  store ptr %133, ptr %135, align 8, !tbaa !13
  %136 = load ptr, ptr %5, align 8, !tbaa !7
  %137 = getelementptr inbounds nuw %struct.mbedtls_md_context_t, ptr %136, i32 0, i32 1
  %138 = load ptr, ptr %137, align 8, !tbaa !13
  %139 = icmp eq ptr %138, null
  br i1 %139, label %140, label %141

140:                                              ; preds = %132
  store i32 -20864, ptr %4, align 4
  br label %166

141:                                              ; preds = %132
  %142 = load ptr, ptr %5, align 8, !tbaa !7
  %143 = getelementptr inbounds nuw %struct.mbedtls_md_context_t, ptr %142, i32 0, i32 1
  %144 = load ptr, ptr %143, align 8, !tbaa !13
  call void @mbedtls_sha3_init(ptr noundef %144)
  br label %145

145:                                              ; preds = %141
  br label %147

146:                                              ; preds = %15
  store i32 -20736, ptr %4, align 4
  br label %166

147:                                              ; preds = %145, %130, %115, %100, %85, %70, %55, %40
  %148 = load i32, ptr %7, align 4, !tbaa !3
  %149 = icmp ne i32 %148, 0
  br i1 %149, label %150, label %165

150:                                              ; preds = %147
  %151 = load ptr, ptr %6, align 8, !tbaa !18
  %152 = getelementptr inbounds nuw %struct.mbedtls_md_info_t, ptr %151, i32 0, i32 2
  %153 = load i8, ptr %152, align 1, !tbaa !17
  %154 = zext i8 %153 to i64
  %155 = call noalias ptr @calloc(i64 noundef 2, i64 noundef %154) #10
  %156 = load ptr, ptr %5, align 8, !tbaa !7
  %157 = getelementptr inbounds nuw %struct.mbedtls_md_context_t, ptr %156, i32 0, i32 2
  store ptr %155, ptr %157, align 8, !tbaa !16
  %158 = load ptr, ptr %5, align 8, !tbaa !7
  %159 = getelementptr inbounds nuw %struct.mbedtls_md_context_t, ptr %158, i32 0, i32 2
  %160 = load ptr, ptr %159, align 8, !tbaa !16
  %161 = icmp eq ptr %160, null
  br i1 %161, label %162, label %164

162:                                              ; preds = %150
  %163 = load ptr, ptr %5, align 8, !tbaa !7
  call void @mbedtls_md_free(ptr noundef %163)
  store i32 -20864, ptr %4, align 4
  br label %166

164:                                              ; preds = %150
  br label %165

165:                                              ; preds = %164, %147
  store i32 0, ptr %4, align 4
  br label %166

166:                                              ; preds = %165, %162, %146, %140, %125, %110, %95, %80, %65, %50, %35, %14, %10
  %167 = load i32, ptr %4, align 4
  ret i32 %167
}