; Function Attrs: nounwind uwtable
define hidden range(i32 -20864, 1) i32 @mbedtls_md_setup(ptr noundef %0, ptr noundef %1, i32 noundef %2) local_unnamed_addr #3 {
  %4 = icmp eq ptr %0, null
  %5 = icmp eq ptr %1, null
  %or.cond = or i1 %4, %5
  br i1 %or.cond, label %50, label %6

6:                                                ; preds = %3
  store ptr %1, ptr %0, align 8, !tbaa !3
  %7 = getelementptr inbounds nuw i8, ptr %0, i64 8
  %8 = getelementptr inbounds nuw i8, ptr %0, i64 16
  tail call void @llvm.memset.p0.i64(ptr noundef nonnull align 8 dereferenceable(16) %7, i8 0, i64 16, i1 false)
  %9 = load i32, ptr %1, align 4, !tbaa !10
  switch i32 %9, label %50 [
    i32 3, label %10
    i32 4, label %14
    i32 5, label %18
    i32 8, label %22
    i32 9, label %26
    i32 10, label %30
    i32 11, label %34
    i32 16, label %38
    i32 17, label %38
    i32 18, label %38
    i32 19, label %38
  ]

10:                                               ; preds = %6
  %11 = tail call noalias dereferenceable_or_null(88) ptr @calloc(i64 noundef 1, i64 noundef 88) #15
  store ptr %11, ptr %7, align 8, !tbaa !9
  %12 = icmp eq ptr %11, null
  br i1 %12, label %50, label %13

13:                                               ; preds = %10
  tail call void @mbedtls_md5_init(ptr noundef nonnull %11) #14
  br label %42

14:                                               ; preds = %6
  %15 = tail call noalias dereferenceable_or_null(92) ptr @calloc(i64 noundef 1, i64 noundef 92) #15
  store ptr %15, ptr %7, align 8, !tbaa !9
  %16 = icmp eq ptr %15, null
  br i1 %16, label %50, label %17

17:                                               ; preds = %14
  tail call void @mbedtls_ripemd160_init(ptr noundef nonnull %15) #14
  br label %42

18:                                               ; preds = %6
  %19 = tail call noalias dereferenceable_or_null(92) ptr @calloc(i64 noundef 1, i64 noundef 92) #15
  store ptr %19, ptr %7, align 8, !tbaa !9
  %20 = icmp eq ptr %19, null
  br i1 %20, label %50, label %21

21:                                               ; preds = %18
  tail call void @mbedtls_sha1_init(ptr noundef nonnull %19) #14
  br label %42

22:                                               ; preds = %6
  %23 = tail call noalias dereferenceable_or_null(108) ptr @calloc(i64 noundef 1, i64 noundef 108) #15
  store ptr %23, ptr %7, align 8, !tbaa !9
  %24 = icmp eq ptr %23, null
  br i1 %24, label %50, label %25

25:                                               ; preds = %22
  tail call void @mbedtls_sha256_init(ptr noundef nonnull %23) #14
  br label %42

26:                                               ; preds = %6
  %27 = tail call noalias dereferenceable_or_null(108) ptr @calloc(i64 noundef 1, i64 noundef 108) #15
  store ptr %27, ptr %7, align 8, !tbaa !9
  %28 = icmp eq ptr %27, null
  br i1 %28, label %50, label %29

29:                                               ; preds = %26
  tail call void @mbedtls_sha256_init(ptr noundef nonnull %27) #14
  br label %42

30:                                               ; preds = %6
  %31 = tail call noalias dereferenceable_or_null(216) ptr @calloc(i64 noundef 1, i64 noundef 216) #15
  store ptr %31, ptr %7, align 8, !tbaa !9
  %32 = icmp eq ptr %31, null
  br i1 %32, label %50, label %33

33:                                               ; preds = %30
  tail call void @mbedtls_sha512_init(ptr noundef nonnull %31) #14
  br label %42

34:                                               ; preds = %6
  %35 = tail call noalias dereferenceable_or_null(216) ptr @calloc(i64 noundef 1, i64 noundef 216) #15
  store ptr %35, ptr %7, align 8, !tbaa !9
  %36 = icmp eq ptr %35, null
  br i1 %36, label %50, label %37

37:                                               ; preds = %34
  tail call void @mbedtls_sha512_init(ptr noundef nonnull %35) #14
  br label %42

38:                                               ; preds = %6, %6, %6, %6
  %39 = tail call noalias dereferenceable_or_null(208) ptr @calloc(i64 noundef 1, i64 noundef 208) #15
  store ptr %39, ptr %7, align 8, !tbaa !9
  %40 = icmp eq ptr %39, null
  br i1 %40, label %50, label %41

41:                                               ; preds = %38
  tail call void @mbedtls_sha3_init(ptr noundef nonnull %39) #14
  br label %42

42:                                               ; preds = %41, %37, %33, %29, %25, %21, %17, %13
  %.not = icmp eq i32 %2, 0
  br i1 %.not, label %50, label %43

43:                                               ; preds = %42
  %44 = getelementptr inbounds nuw i8, ptr %1, i64 5
  %45 = load i8, ptr %44, align 1, !tbaa !14
  %46 = zext i8 %45 to i64
  %47 = tail call noalias ptr @calloc(i64 noundef 2, i64 noundef %46) #15
  store ptr %47, ptr %8, align 8, !tbaa !13
  %48 = icmp eq ptr %47, null
  br i1 %48, label %49, label %50

49:                                               ; preds = %43
  tail call void @mbedtls_md_free(ptr noundef nonnull %0)
  br label %50

50:                                               ; preds = %42, %43, %6, %38, %34, %30, %26, %22, %18, %14, %10, %3, %49
  %.0 = phi i32 [ -20864, %49 ], [ -20736, %3 ], [ -20864, %10 ], [ -20864, %14 ], [ -20864, %18 ], [ -20864, %22 ], [ -20864, %26 ], [ -20864, %30 ], [ -20864, %34 ], [ -20864, %38 ], [ -20736, %6 ], [ 0, %43 ], [ 0, %42 ]
  ret i32 %.0
}